; Function Attrs: nofree norecurse nosync nounwind null_pointer_is_valid sspstrong memory(read, inaccessiblemem: none) uwtable
define hidden noundef ptr @Configtable_find(ptr noundef readonly captures(none) %0) local_unnamed_addr #8 {
  %2 = load ptr, ptr @x4a, align 8
  %3 = icmp eq ptr %2, null
  br i1 %3, label %.critedge, label %4

4:                                                ; preds = %1
  %5 = load ptr, ptr %0, align 8
  %6 = getelementptr inbounds nuw i8, ptr %5, i64 88
  %7 = load i32, ptr %6, align 8
  %8 = mul i32 %7, 37
  %9 = getelementptr inbounds nuw i8, ptr %0, i64 8
  %10 = load i32, ptr %9, align 8
  %11 = add i32 %8, %10
  %12 = load i32, ptr %2, align 8
  %13 = add i32 %12, -1
  %14 = and i32 %13, %11
  %15 = getelementptr inbounds nuw i8, ptr %2, i64 16
  %16 = load ptr, ptr %15, align 8
  %17 = sext i32 %14 to i64
  %18 = getelementptr ptr, ptr %16, i64 %17
  %.010 = load ptr, ptr %18, align 8
  %.not11 = icmp eq ptr %.010, null
  br i1 %.not11, label %.critedge, label %.lr.ph

.lr.ph:                                           ; preds = %4, %Configcmp.exit.thread
  %.012 = phi ptr [ %.0, %Configcmp.exit.thread ], [ %.010, %4 ]
  %19 = load ptr, ptr %.012, align 8
  %20 = load ptr, ptr %19, align 8
  %21 = getelementptr inbounds nuw i8, ptr %20, i64 88
  %22 = load i32, ptr %21, align 8
  %23 = icmp eq i32 %22, %7
  br i1 %23, label %Configcmp.exit, label %Configcmp.exit.thread

Configcmp.exit:                                   ; preds = %.lr.ph
  %24 = getelementptr inbounds nuw i8, ptr %19, i64 8
  %25 = load i32, ptr %24, align 8
  %26 = icmp eq i32 %25, %10
  br i1 %26, label %.critedge, label %Configcmp.exit.thread

Configcmp.exit.thread:                            ; preds = %.lr.ph, %Configcmp.exit
  %27 = getelementptr inbounds nuw i8, ptr %.012, i64 8
  %.0 = load ptr, ptr %27, align 8
  %.not = icmp eq ptr %.0, null
  br i1 %.not, label %.critedge, label %.lr.ph, !llvm.loop !38

.critedge:                                        ; preds = %Configcmp.exit.thread, %Configcmp.exit, %4, %1
  %.08 = phi ptr [ null, %1 ], [ null, %4 ], [ null, %Configcmp.exit.thread ], [ %19, %Configcmp.exit ]
  ret ptr %.08
}